; Function Attrs: mustprogress uwtable
define void @_ZN32pxrInternal_v0_24__pxrReserved__22Vt_DefaultValueFactoryINS_7GfVec4dEE6InvokeEv(ptr dead_on_unwind noalias nocapture writable writeonly sret(%"struct.pxrInternal_v0_24__pxrReserved__::Vt_DefaultValueHolder") align 8 %0) local_unnamed_addr #0 align 2 personality ptr @__gxx_personality_v0 {
  %2 = alloca %"class.pxrInternal_v0_24__pxrReserved__::GfVec4d", align 8
  call void @_ZN32pxrInternal_v0_24__pxrReserved__6VtZeroINS_7GfVec4dEEET_v(ptr dead_on_unwind nonnull writable sret(%"class.pxrInternal_v0_24__pxrReserved__::GfVec4d") align 8 %2)
  call void @llvm.experimental.noalias.scope.decl(metadata !123)
  %3 = call noalias noundef nonnull dereferenceable(32) ptr @_Znwm(i64 noundef 32) #23, !noalias !126
  call void @llvm.memcpy.p0.p0.i64(ptr noundef nonnull align 16 dereferenceable(32) %3, ptr noundef nonnull align 8 dereferenceable(32) %2, i64 32, i1 false), !noalias !126
  store ptr %3, ptr %0, align 8, !alias.scope !123
  %4 = getelementptr inbounds nuw i8, ptr %0, i64 8
  store ptr @_ZN32pxrInternal_v0_24__pxrReserved__14TfAnyUniquePtr7_DeleteINS_7GfVec4dEEEvPKv, ptr %4, align 8, !alias.scope !123
  %5 = getelementptr inbounds nuw i8, ptr %0, i64 16
  store ptr @_ZTIN32pxrInternal_v0_24__pxrReserved__7GfVec4dE, ptr %5, align 8, !alias.scope !123
  ret void
}